; Function Attrs: mustprogress uwtable
define internal fastcc void @_ZN24json11_internal_lightgbm12_GLOBAL__N_110JsonParser11encode_utf8ElPNSt7__cxx1112basic_stringIcSt11char_traitsIcESaIcEEE(i64 noundef %0, ptr noundef %1) unnamed_addr #1 align 2 {
  %3 = icmp slt i64 %0, 0
  br i1 %3, label %52, label %4

4:                                                ; preds = %2
  %5 = icmp ult i64 %0, 128
  br i1 %5, label %6, label %8

6:                                                ; preds = %4
  %7 = trunc nuw nsw i64 %0 to i8
  br label %.sink.split

8:                                                ; preds = %4
  %9 = icmp ult i64 %0, 2048
  br i1 %9, label %10, label %18

10:                                               ; preds = %8
  %11 = lshr i64 %0, 6
  %12 = trunc nuw i64 %11 to i8
  %13 = or disjoint i8 %12, -64
  %14 = tail call noundef nonnull align 8 dereferenceable(32) ptr @_ZNSt7__cxx1112basic_stringIcSt11char_traitsIcESaIcEEpLEc(ptr noundef nonnull align 8 dereferenceable(32) %1, i8 noundef signext %13)
  %15 = trunc i64 %0 to i8
  %16 = and i8 %15, 63
  %17 = or disjoint i8 %16, -128
  br label %.sink.split

18:                                               ; preds = %8
  %19 = icmp ult i64 %0, 65536
  br i1 %19, label %20, label %33

20:                                               ; preds = %18
  %21 = lshr i64 %0, 12
  %22 = trunc nuw i64 %21 to i8
  %23 = or disjoint i8 %22, -32
  %24 = tail call noundef nonnull align 8 dereferenceable(32) ptr @_ZNSt7__cxx1112basic_stringIcSt11char_traitsIcESaIcEEpLEc(ptr noundef nonnull align 8 dereferenceable(32) %1, i8 noundef signext %23)
  %25 = lshr i64 %0, 6
  %26 = trunc i64 %25 to i8
  %27 = and i8 %26, 63
  %28 = or disjoint i8 %27, -128
  %29 = tail call noundef nonnull align 8 dereferenceable(32) ptr @_ZNSt7__cxx1112basic_stringIcSt11char_traitsIcESaIcEEpLEc(ptr noundef nonnull align 8 dereferenceable(32) %1, i8 noundef signext %28)
  %30 = trunc i64 %0 to i8
  %31 = and i8 %30, 63
  %32 = or disjoint i8 %31, -128
  br label %.sink.split

33:                                               ; preds = %18
  %34 = lshr i64 %0, 18
  %35 = trunc i64 %34 to i8
  %36 = or i8 %35, -16
  %37 = tail call noundef nonnull align 8 dereferenceable(32) ptr @_ZNSt7__cxx1112basic_stringIcSt11char_traitsIcESaIcEEpLEc(ptr noundef nonnull align 8 dereferenceable(32) %1, i8 noundef signext %36)
  %38 = lshr i64 %0, 12
  %39 = trunc i64 %38 to i8
  %40 = and i8 %39, 63
  %41 = or disjoint i8 %40, -128
  %42 = tail call noundef nonnull align 8 dereferenceable(32) ptr @_ZNSt7__cxx1112basic_stringIcSt11char_traitsIcESaIcEEpLEc(ptr noundef nonnull align 8 dereferenceable(32) %1, i8 noundef signext %41)
  %43 = lshr i64 %0, 6
  %44 = trunc i64 %43 to i8
  %45 = and i8 %44, 63
  %46 = or disjoint i8 %45, -128
  %47 = tail call noundef nonnull align 8 dereferenceable(32) ptr @_ZNSt7__cxx1112basic_stringIcSt11char_traitsIcESaIcEEpLEc(ptr noundef nonnull align 8 dereferenceable(32) %1, i8 noundef signext %46)
  %48 = trunc i64 %0 to i8
  %49 = and i8 %48, 63
  %50 = or disjoint i8 %49, -128
  br label %.sink.split

.sink.split:                                      ; preds = %6, %20, %33, %10
  %.sink = phi i8 [ %17, %10 ], [ %50, %33 ], [ %32, %20 ], [ %7, %6 ]
  %51 = tail call noundef nonnull align 8 dereferenceable(32) ptr @_ZNSt7__cxx1112basic_stringIcSt11char_traitsIcESaIcEEpLEc(ptr noundef nonnull align 8 dereferenceable(32) %1, i8 noundef signext %.sink)
  br label %52

52:                                               ; preds = %.sink.split, %2
  ret void
}